target datalayout = "e-m:e-p270:32:32-p271:32:32-p272:64:64-i64:64-i128:128-f80:128-n8:16:32:64-S128"
target triple = "x86_64-pc-linux-gnu"

%struct.cli_exe_section = type { i32, i32, i32, i32, i32, i32, i32, i32, i32 }

@.str = private unnamed_addr constant [7 x i8] c"nspack\00", align 1
@.str.1 = private unnamed_addr constant [23 x i8] c"unsp: table size = %d\0A\00", align 1
@.str.2 = private unnamed_addr constant [46 x i8] c"unspack: Unable to allocate memory for table\0A\00", align 1

; Function Attrs: nounwind uwtable
define i32 @unspack(ptr noundef %0, ptr noundef %1, ptr noundef %2, i32 noundef %3, i32 noundef %4, i32 noundef %5, i32 noundef %6) #0 {
  %8 = alloca i32, align 4
  %9 = alloca ptr, align 8
  %10 = alloca ptr, align 8
  %11 = alloca ptr, align 8
  %12 = alloca i32, align 4
  %13 = alloca i32, align 4
  %14 = alloca i32, align 4
  %15 = alloca i32, align 4
  %16 = alloca i8, align 1
  %17 = alloca i32, align 4
  %18 = alloca i32, align 4
  %19 = alloca i32, align 4
  %20 = alloca i32, align 4
  %21 = alloca i32, align 4
  %22 = alloca i32, align 4
  %23 = alloca i32, align 4
  %24 = alloca ptr, align 8
  %25 = alloca ptr, align 8
  %26 = alloca ptr, align 8
  %27 = alloca %struct.cli_exe_section, align 4
  store ptr %0, ptr %9, align 8
  store ptr %1, ptr %10, align 8
  store ptr %2, ptr %11, align 8
  store i32 %3, ptr %12, align 4
  store i32 %4, ptr %13, align 4
  store i32 %5, ptr %14, align 4
  store i32 %6, ptr %15, align 4
  %28 = load ptr, ptr %9, align 8
  %29 = load i8, ptr %28, align 1
  store i8 %29, ptr %16, align 1
  %30 = load ptr, ptr %10, align 8
  store ptr %30, ptr %25, align 8
  %31 = load ptr, ptr %9, align 8
  %32 = getelementptr inbounds i8, ptr %31, i64 13
  store ptr %32, ptr %26, align 8
  %33 = load i8, ptr %16, align 1
  %34 = zext i8 %33 to i32
  %35 = icmp sge i32 %34, 225
  br i1 %35, label %36, label %37

36:                                               ; preds = %7
  store i32 1, ptr %8, align 4
  br label %146

37:                                               ; preds = %7
  %38 = load i8, ptr %16, align 1
  %39 = zext i8 %38 to i32
  %40 = icmp sge i32 %39, 45
  br i1 %40, label %41, label %55

41:                                               ; preds = %37
  %42 = load i8, ptr %16, align 1
  %43 = zext i8 %42 to i32
  %44 = sdiv i32 %43, 45
  store i32 %44, ptr %17, align 4
  store i32 %44, ptr %18, align 4
  br label %45

45:                                               ; preds = %50, %41
  %46 = load i8, ptr %16, align 1
  %47 = zext i8 %46 to i32
  %48 = add nsw i32 %47, 211
  %49 = trunc i32 %48 to i8
  store i8 %49, ptr %16, align 1
  br label %50

50:                                               ; preds = %45
  %51 = load i32, ptr %17, align 4
  %52 = add i32 %51, -1
  store i32 %52, ptr %17, align 4
  %53 = icmp ne i32 %52, 0
  br i1 %53, label %45, label %54

54:                                               ; preds = %50
  br label %56

55:                                               ; preds = %37
  store i32 0, ptr %18, align 4
  br label %56

56:                                               ; preds = %55, %54
  %57 = load i8, ptr %16, align 1
  %58 = zext i8 %57 to i32
  %59 = icmp sge i32 %58, 9
  br i1 %59, label %60, label %74

60:                                               ; preds = %56
  %61 = load i8, ptr %16, align 1
  %62 = zext i8 %61 to i32
  %63 = sdiv i32 %62, 9
  store i32 %63, ptr %17, align 4
  store i32 %63, ptr %20, align 4
  br label %64

64:                                               ; preds = %69, %60
  %65 = load i8, ptr %16, align 1
  %66 = zext i8 %65 to i32
  %67 = add nsw i32 %66, 247
  %68 = trunc i32 %67 to i8
  store i8 %68, ptr %16, align 1
  br label %69

69:                                               ; preds = %64
  %70 = load i32, ptr %17, align 4
  %71 = add i32 %70, -1
  store i32 %71, ptr %17, align 4
  %72 = icmp ne i32 %71, 0
  br i1 %72, label %64, label %73

73:                                               ; preds = %69
  br label %75

74:                                               ; preds = %56
  store i32 0, ptr %20, align 4
  br label %75

75:                                               ; preds = %74, %73
  %76 = load i8, ptr %16, align 1
  %77 = zext i8 %76 to i32
  store i32 %77, ptr %19, align 4
  %78 = load i32, ptr %20, align 4
  store i32 %78, ptr %17, align 4
  %79 = load i32, ptr %19, align 4
  %80 = load i32, ptr %17, align 4
  %81 = add i32 %79, %80
  %82 = and i32 %81, 255
  %83 = trunc i32 %82 to i8
  store i8 %83, ptr %16, align 1
  %84 = load i8, ptr %16, align 1
  %85 = zext i8 %84 to i32
  %86 = shl i32 768, %85
  %87 = add nsw i32 %86, 1846
  %88 = sext i32 %87 to i64
  %89 = mul i64 %88, 2
  %90 = trunc i64 %89 to i32
  store i32 %90, ptr %21, align 4
  %91 = load ptr, ptr %11, align 8
  %92 = load i32, ptr %21, align 4
  %93 = zext i32 %92 to i64
  %94 = call i32 @cli_checklimits(ptr noundef @.str, ptr noundef %91, i64 noundef %93, i64 noundef 0, i64 noundef 0)
  %95 = icmp ne i32 %94, 0
  br i1 %95, label %96, label %97

96:                                               ; preds = %75
  store i32 1, ptr %8, align 4
  br label %146

97:                                               ; preds = %75
  %98 = load i32, ptr %21, align 4
  call void (ptr, ...) @cli_dbgmsg(ptr noundef @.str.1, i32 noundef %98)
  %99 = load i32, ptr %21, align 4
  %100 = zext i32 %99 to i64
  %101 = call ptr @cli_max_malloc(i64 noundef %100)
  store ptr %101, ptr %24, align 8
  %102 = icmp ne ptr %101, null
  br i1 %102, label %104, label %103

103:                                              ; preds = %97
  call void (ptr, ...) @cli_dbgmsg(ptr noundef @.str.2)
  store i32 1, ptr %8, align 4
  br label %146

104:                                              ; preds = %97
  %105 = load ptr, ptr %9, align 8
  %106 = getelementptr inbounds i8, ptr %105, i64 9
  %107 = load i32, ptr %106, align 1
  store i32 %107, ptr %22, align 4
  %108 = load ptr, ptr %9, align 8
  %109 = getelementptr inbounds i8, ptr %108, i64 5
  %110 = load i32, ptr %109, align 1
  store i32 %110, ptr %23, align 4
  %111 = load i32, ptr %23, align 4
  %112 = icmp ule i32 %111, 13
  br i1 %112, label %113, label %115

113:                                              ; preds = %104
  %114 = load ptr, ptr %24, align 8
  call void @free(ptr noundef %114) #3
  store i32 1, ptr %8, align 4
  br label %146

115:                                              ; preds = %104
  %116 = load ptr, ptr %24, align 8
  %117 = load i32, ptr %21, align 4
  %118 = load i32, ptr %19, align 4
  %119 = load i32, ptr %20, align 4
  %120 = load i32, ptr %18, align 4
  %121 = load ptr, ptr %26, align 8
  %122 = load i32, ptr %23, align 4
  %123 = load ptr, ptr %25, align 8
  %124 = load i32, ptr %22, align 4
  %125 = call i32 @very_real_unpack(ptr noundef %116, i32 noundef %117, i32 noundef %118, i32 noundef %119, i32 noundef %120, ptr noundef %121, i32 noundef %122, ptr noundef %123, i32 noundef %124)
  store i32 %125, ptr %19, align 4
  %126 = load ptr, ptr %24, align 8
  call void @free(ptr noundef %126) #3
  %127 = load i32, ptr %19, align 4
  %128 = icmp ne i32 %127, 0
  br i1 %128, label %129, label %130

129:                                              ; preds = %115
  store i32 1, ptr %8, align 4
  br label %146

130:                                              ; preds = %115
  %131 = getelementptr inbounds %struct.cli_exe_section, ptr %27, i32 0, i32 2
  store i32 0, ptr %131, align 4
  %132 = load i32, ptr %22, align 4
  %133 = getelementptr inbounds %struct.cli_exe_section, ptr %27, i32 0, i32 3
  store i32 %132, ptr %133, align 4
  %134 = load i32, ptr %22, align 4
  %135 = getelementptr inbounds %struct.cli_exe_section, ptr %27, i32 0, i32 1
  store i32 %134, ptr %135, align 4
  %136 = load i32, ptr %12, align 4
  %137 = getelementptr inbounds %struct.cli_exe_section, ptr %27, i32 0, i32 0
  store i32 %136, ptr %137, align 4
  %138 = load ptr, ptr %10, align 8
  %139 = load i32, ptr %13, align 4
  %140 = load i32, ptr %14, align 4
  %141 = load i32, ptr %15, align 4
  %142 = call i32 @cli_rebuildpe(ptr noundef %138, ptr noundef %27, i32 noundef 1, i32 noundef %139, i32 noundef %140, i32 noundef 0, i32 noundef 0, i32 noundef %141)
  %143 = icmp ne i32 %142, 0
  %144 = xor i1 %143, true
  %145 = zext i1 %144 to i32
  store i32 %145, ptr %8, align 4
  br label %146

146:                                              ; preds = %130, %129, %113, %103, %96, %36
  %147 = load i32, ptr %8, align 4
  ret i32 %147
}