; Function Attrs: nounwind uwtable
define i32 @unspack(ptr noundef %0, ptr noundef %1, ptr noundef %2, i32 noundef %3, i32 noundef %4, i32 noundef %5, i32 noundef %6) local_unnamed_addr #0 {
  %8 = alloca %struct.cli_exe_section, align 4
  %9 = load i8, ptr %0, align 1
  %10 = getelementptr inbounds i8, ptr %0, i64 13
  %11 = icmp ugt i8 %9, -32
  br i1 %11, label %47, label %12

12:                                               ; preds = %7
  %13 = icmp ugt i8 %9, 44
  br i1 %13, label %.loopexit57.loopexit, label %.loopexit57

.loopexit57.loopexit:                             ; preds = %12
  %14 = udiv i8 %9, 45
  %15 = zext nneg i8 %14 to i32
  %.neg = mul i8 %14, -45
  %16 = add i8 %.neg, %9
  br label %.loopexit57

.loopexit57:                                      ; preds = %.loopexit57.loopexit, %12
  %.046 = phi i32 [ 0, %12 ], [ %15, %.loopexit57.loopexit ]
  %.1 = phi i8 [ %9, %12 ], [ %16, %.loopexit57.loopexit ]
  %17 = icmp ugt i8 %.1, 8
  br i1 %17, label %.loopexit.loopexit, label %.loopexit

.loopexit.loopexit:                               ; preds = %.loopexit57
  %18 = udiv i8 %.1, 9
  %19 = zext nneg i8 %18 to i32
  %.neg60 = mul i8 %18, -9
  %20 = add i8 %.neg60, %.1
  br label %.loopexit

.loopexit:                                        ; preds = %.loopexit.loopexit, %.loopexit57
  %.047 = phi i32 [ 0, %.loopexit57 ], [ %19, %.loopexit.loopexit ]
  %.3 = phi i8 [ %.1, %.loopexit57 ], [ %20, %.loopexit.loopexit ]
  %21 = zext i8 %.3 to i32
  %22 = trunc nuw nsw i32 %.047 to i8
  %23 = add i8 %.3, %22
  %24 = zext nneg i8 %23 to i32
  %25 = shl i32 1536, %24
  %26 = add nuw i32 %25, 3692
  %27 = zext i32 %26 to i64
  %28 = tail call i32 @cli_checklimits(ptr noundef nonnull @.str, ptr noundef %2, i64 noundef %27, i64 noundef 0, i64 noundef 0) #6
  %.not53 = icmp eq i32 %28, 0
  br i1 %.not53, label %29, label %47

29:                                               ; preds = %.loopexit
  tail call void (ptr, ...) @cli_dbgmsg(ptr noundef nonnull @.str.1, i32 noundef %26) #6
  %30 = tail call ptr @cli_max_malloc(i64 noundef %27) #6
  %.not54 = icmp eq ptr %30, null
  br i1 %.not54, label %31, label %32

31:                                               ; preds = %29
  tail call void (ptr, ...) @cli_dbgmsg(ptr noundef nonnull @.str.2) #6
  br label %47

32:                                               ; preds = %29
  %33 = getelementptr inbounds i8, ptr %0, i64 9
  %34 = load i32, ptr %33, align 1
  %35 = getelementptr inbounds i8, ptr %0, i64 5
  %36 = load i32, ptr %35, align 1
  %37 = icmp ult i32 %36, 14
  br i1 %37, label %38, label %39

38:                                               ; preds = %32
  tail call void @free(ptr noundef nonnull %30) #6
  br label %47

39:                                               ; preds = %32
  %40 = tail call i32 @very_real_unpack(ptr noundef nonnull %30, i32 noundef %26, i32 noundef %21, i32 noundef %.047, i32 noundef %.046, ptr noundef nonnull %10, i32 noundef %36, ptr noundef %1, i32 noundef %34), !range !4
  tail call void @free(ptr noundef nonnull %30) #6
  %.not55 = icmp eq i32 %40, 0
  br i1 %.not55, label %41, label %47

41:                                               ; preds = %39
  %42 = getelementptr inbounds i8, ptr %8, i64 8
  store i32 0, ptr %42, align 4
  %43 = getelementptr inbounds i8, ptr %8, i64 12
  store i32 %34, ptr %43, align 4
  %44 = getelementptr inbounds i8, ptr %8, i64 4
  store i32 %34, ptr %44, align 4
  store i32 %3, ptr %8, align 4
  %45 = call i32 @cli_rebuildpe(ptr noundef %1, ptr noundef nonnull %8, i32 noundef 1, i32 noundef %4, i32 noundef %5, i32 noundef 0, i32 noundef 0, i32 noundef %6) #6
  %.not56 = icmp eq i32 %45, 0
  %46 = zext i1 %.not56 to i32
  br label %47

47:                                               ; preds = %39, %.loopexit, %7, %41, %38, %31
  %.0 = phi i32 [ 1, %38 ], [ %46, %41 ], [ 1, %31 ], [ 1, %7 ], [ 1, %.loopexit ], [ 1, %39 ]
  ret i32 %.0
}